; Function Attrs: nounwind ssp uwtable
define hidden noundef i32 @_sodium_blake2b_init_key(ptr noundef %0, i8 noundef zeroext %1, ptr noundef readonly captures(address_is_null) %2, i8 noundef zeroext %3) local_unnamed_addr #2 {
  %5 = alloca [1 x %struct.blake2b_param_], align 16
  %6 = alloca [128 x i8], align 16
  call void @llvm.lifetime.start.p0(i64 64, ptr nonnull %5) #8
  %7 = add i8 %1, -65
  %or.cond = icmp ult i8 %7, -64
  br i1 %or.cond, label %8, label %9

8:                                                ; preds = %4
  tail call void @sodium_misuse() #9
  unreachable

9:                                                ; preds = %4
  %10 = icmp eq ptr %2, null
  %11 = add i8 %3, -65
  %12 = icmp ult i8 %11, -64
  %or.cond7 = or i1 %10, %12
  br i1 %or.cond7, label %13, label %14

13:                                               ; preds = %9
  tail call void @sodium_misuse() #9
  unreachable

14:                                               ; preds = %9
  store i8 %1, ptr %5, align 16
  %15 = getelementptr inbounds nuw i8, ptr %5, i64 1
  store i8 %3, ptr %15, align 1
  %16 = getelementptr inbounds nuw i8, ptr %5, i64 2
  store i8 1, ptr %16, align 2
  %17 = getelementptr inbounds nuw i8, ptr %5, i64 3
  store i8 1, ptr %17, align 1
  %18 = getelementptr inbounds nuw i8, ptr %5, i64 4
  call void @llvm.memset.p0.i64(ptr noundef nonnull align 4 dereferenceable(60) %18, i8 0, i64 60, i1 false)
  tail call void @llvm.memcpy.p0.p0.i64(ptr noundef nonnull align 1 dereferenceable(64) %0, ptr noundef nonnull align 16 dereferenceable(64) @blake2b_IV, i64 64, i1 false)
  %19 = getelementptr inbounds nuw i8, ptr %0, i64 64
  tail call void @llvm.memset.p0.i64(ptr noundef nonnull align 1 dereferenceable(297) %19, i8 noundef 0, i64 noundef 297, i1 noundef false) #8
  br label %20

20:                                               ; preds = %20, %14
  %.07.i = phi i64 [ 0, %14 ], [ %27, %20 ]
  %21 = shl nuw nsw i64 %.07.i, 3
  %22 = getelementptr i8, ptr %5, i64 %21
  %23 = load i64, ptr %22, align 8
  %24 = getelementptr [8 x i64], ptr %0, i64 0, i64 %.07.i
  %25 = load i64, ptr %24, align 1
  %26 = xor i64 %25, %23
  store i64 %26, ptr %24, align 1
  %27 = add nuw nsw i64 %.07.i, 1
  %exitcond.not.i = icmp eq i64 %27, 8
  br i1 %exitcond.not.i, label %_sodium_blake2b_init_param.exit, label %20, !llvm.loop !4

_sodium_blake2b_init_param.exit:                  ; preds = %20
  call void @llvm.lifetime.start.p0(i64 128, ptr nonnull %6) #8
  call void @llvm.memset.p0.i64(ptr noundef nonnull align 16 dereferenceable(128) %6, i8 noundef 0, i64 noundef 128, i1 noundef false) #8
  %28 = zext nneg i8 %3 to i64
  %29 = call ptr @__memcpy_chk(ptr noundef nonnull %6, ptr noundef nonnull %2, i64 noundef %28, i64 noundef 128) #8, !alias.scope !6
  %30 = call i32 @_sodium_blake2b_update(ptr noundef nonnull %0, ptr noundef nonnull %6, i64 noundef 128)
  call void @sodium_memzero(ptr noundef nonnull %6, i64 noundef 128) #8
  call void @llvm.lifetime.end.p0(i64 128, ptr nonnull %6) #8
  call void @llvm.lifetime.end.p0(i64 64, ptr nonnull %5) #8
  ret i32 0
}